target datalayout = "e-m:e-p270:32:32-p271:32:32-p272:64:64-i64:64-i128:128-f80:128-n8:16:32:64-S128"
target triple = "x86_64-pc-linux-gnu"

%class.OopHandle = type { ptr }
%class.ModuleEntry = type { %class.OopHandle, %class.OopHandle, ptr, ptr, %union.anon, ptr, ptr, i32, i8, i8, i8, i8, i8, i32, i64 }
%union.anon = type { ptr }
%class.Handle = type { ptr }

@_ZN16ModuleEntryTable16_javabase_moduleE = hidden global ptr null, align 8
@g_assert_poison = external global ptr, align 8
@.str.9 = private unnamed_addr constant [44 x i8] c"src/hotspot/share/classfile/moduleEntry.cpp\00", align 1
@.str.14 = private unnamed_addr constant [51 x i8] c"Unable to finalize module definition for java.base\00", align 1
@_ZN15ClassLoaderData27_the_null_class_loader_dataE = external global ptr, align 8

; Function Attrs: mustprogress nounwind uwtable
define linkonce_odr hidden noundef ptr @_ZNK6Handle3objEv(ptr noundef nonnull align 8 dereferenceable(8) %0) #1 comdat align 2 {
  %2 = alloca ptr, align 8
  store ptr %0, ptr %2, align 8
  %3 = load ptr, ptr %2, align 8
  %4 = getelementptr inbounds %class.Handle, ptr %3, i32 0, i32 0
  %5 = load ptr, ptr %4, align 8
  %6 = icmp eq ptr %5, null
  br i1 %6, label %7, label %8

7:                                                ; preds = %1
  br label %12

8:                                                ; preds = %1
  %9 = getelementptr inbounds %class.Handle, ptr %3, i32 0, i32 0
  %10 = load ptr, ptr %9, align 8
  %11 = load ptr, ptr %10, align 8
  br label %12

12:                                               ; preds = %8, %7
  %13 = phi ptr [ null, %7 ], [ %11, %8 ]
  ret ptr %13
}

; Function Attrs: mustprogress nounwind uwtable
define linkonce_odr hidden noundef nonnull align 8 dereferenceable(8) ptr @_ZN9OopHandleaSERKS_(ptr noundef nonnull align 8 dereferenceable(8) %0, ptr noundef nonnull align 8 dereferenceable(8) %1) #1 comdat align 2 {
  %3 = alloca ptr, align 8
  %4 = alloca ptr, align 8
  store ptr %0, ptr %3, align 8
  store ptr %1, ptr %4, align 8
  %5 = load ptr, ptr %3, align 8
  %6 = load ptr, ptr %4, align 8
  %7 = getelementptr inbounds %class.OopHandle, ptr %6, i32 0, i32 0
  %8 = load ptr, ptr %7, align 8
  %9 = getelementptr inbounds %class.OopHandle, ptr %5, i32 0, i32 0
  store ptr %8, ptr %9, align 8
  ret ptr %5
}

; Function Attrs: mustprogress nounwind uwtable
define linkonce_odr hidden void @_ZN6Symbol24maybe_increment_refcountEPS_(ptr noundef %0) #1 comdat align 2 {
  %2 = alloca ptr, align 8
  store ptr %0, ptr %2, align 8
  %3 = load ptr, ptr %2, align 8
  %4 = icmp ne ptr %3, null
  br i1 %4, label %5, label %7

5:                                                ; preds = %1
  %6 = load ptr, ptr %2, align 8
  call void @_ZN6Symbol18increment_refcountEv(ptr noundef nonnull align 4 dereferenceable(8) %6)
  br label %7

7:                                                ; preds = %5, %1
  ret void
}

; Function Attrs: mustprogress nounwind uwtable
define linkonce_odr hidden void @_ZN6Symbol24maybe_decrement_refcountEPS_(ptr noundef %0) #1 comdat align 2 {
  %2 = alloca ptr, align 8
  store ptr %0, ptr %2, align 8
  %3 = load ptr, ptr %2, align 8
  %4 = icmp ne ptr %3, null
  br i1 %4, label %5, label %7

5:                                                ; preds = %1
  %6 = load ptr, ptr %2, align 8
  call void @_ZN6Symbol18decrement_refcountEv(ptr noundef nonnull align 4 dereferenceable(8) %6)
  br label %7

7:                                                ; preds = %5, %1
  ret void
}

; Function Attrs: mustprogress nounwind uwtable
define linkonce_odr hidden noundef ptr @_ZNK6HandleclEv(ptr noundef nonnull align 8 dereferenceable(8) %0) #1 comdat align 2 {
  %2 = alloca ptr, align 8
  store ptr %0, ptr %2, align 8
  %3 = load ptr, ptr %2, align 8
  %4 = call noundef ptr @_ZNK6Handle3objEv(ptr noundef nonnull align 8 dereferenceable(8) %3)
  ret ptr %4
}

; Function Attrs: mustprogress nounwind uwtable
define linkonce_odr hidden void @_ZN11ModuleEntry10set_moduleE9OopHandle(ptr noundef nonnull align 8 dereferenceable(80) %0, ptr noundef %1) #1 comdat align 2 {
  %3 = alloca ptr, align 8
  %4 = alloca ptr, align 8
  store ptr %0, ptr %3, align 8
  store ptr %1, ptr %4, align 8
  %5 = load ptr, ptr %3, align 8
  %6 = getelementptr inbounds %class.ModuleEntry, ptr %5, i32 0, i32 0
  %7 = call noundef nonnull align 8 dereferenceable(8) ptr @_ZN9OopHandleaSERKS_(ptr noundef nonnull align 8 dereferenceable(8) %6, ptr noundef nonnull align 8 dereferenceable(8) %1)
  ret void
}

; Function Attrs: mustprogress nounwind uwtable
define hidden void @_ZN11ModuleEntry12set_locationEP6Symbol(ptr noundef nonnull align 8 dereferenceable(80) %0, ptr noundef %1) #1 align 2 {
  %3 = alloca ptr, align 8
  %4 = alloca ptr, align 8
  store ptr %0, ptr %3, align 8
  store ptr %1, ptr %4, align 8
  %5 = load ptr, ptr %3, align 8
  %6 = getelementptr inbounds %class.ModuleEntry, ptr %5, i32 0, i32 6
  %7 = load ptr, ptr %6, align 8
  call void @_ZN6Symbol24maybe_decrement_refcountEPS_(ptr noundef %7)
  %8 = load ptr, ptr %4, align 8
  %9 = getelementptr inbounds %class.ModuleEntry, ptr %5, i32 0, i32 6
  store ptr %8, ptr %9, align 8
  %10 = load ptr, ptr %4, align 8
  %11 = icmp ne ptr %10, null
  br i1 %11, label %12, label %20

12:                                               ; preds = %2
  %13 = load ptr, ptr %4, align 8
  call void @_ZN6Symbol18increment_refcountEv(ptr noundef nonnull align 4 dereferenceable(8) %13)
  %14 = call noundef zeroext i1 @_ZN9CDSConfig16is_using_archiveEv()
  br i1 %14, label %15, label %19

15:                                               ; preds = %12
  %16 = load ptr, ptr %4, align 8
  %17 = call noundef i32 @_ZN11FileMapInfo28get_module_shared_path_indexEP6Symbol(ptr noundef %16)
  %18 = getelementptr inbounds %class.ModuleEntry, ptr %5, i32 0, i32 7
  store i32 %17, ptr %18, align 8
  br label %19

19:                                               ; preds = %15, %12
  br label %20

20:                                               ; preds = %19, %2
  ret void
}

; Function Attrs: mustprogress nounwind uwtable
define hidden void @_ZN11ModuleEntry11set_versionEP6Symbol(ptr noundef nonnull align 8 dereferenceable(80) %0, ptr noundef %1) #1 align 2 {
  %3 = alloca ptr, align 8
  %4 = alloca ptr, align 8
  store ptr %0, ptr %3, align 8
  store ptr %1, ptr %4, align 8
  %5 = load ptr, ptr %3, align 8
  %6 = getelementptr inbounds %class.ModuleEntry, ptr %5, i32 0, i32 5
  %7 = load ptr, ptr %6, align 8
  call void @_ZN6Symbol24maybe_decrement_refcountEPS_(ptr noundef %7)
  %8 = load ptr, ptr %4, align 8
  %9 = getelementptr inbounds %class.ModuleEntry, ptr %5, i32 0, i32 5
  store ptr %8, ptr %9, align 8
  %10 = load ptr, ptr %4, align 8
  call void @_ZN6Symbol24maybe_increment_refcountEPS_(ptr noundef %10)
  ret void
}

; Function Attrs: mustprogress nounwind uwtable
define linkonce_odr hidden noundef ptr @_ZN16ModuleEntryTable20javabase_moduleEntryEv() #1 comdat align 2 {
  %1 = load ptr, ptr @_ZN16ModuleEntryTable16_javabase_moduleE, align 8
  ret ptr %1
}

; Function Attrs: mustprogress nounwind uwtable
define linkonce_odr hidden noundef zeroext i1 @_ZNK6Handle7is_nullEv(ptr noundef nonnull align 8 dereferenceable(8) %0) #1 comdat align 2 {
  %2 = alloca ptr, align 8
  store ptr %0, ptr %2, align 8
  %3 = load ptr, ptr %2, align 8
  %4 = getelementptr inbounds %class.Handle, ptr %3, i32 0, i32 0
  %5 = load ptr, ptr %4, align 8
  %6 = icmp eq ptr %5, null
  ret i1 %6
}

; Function Attrs: mustprogress nounwind uwtable
define linkonce_odr hidden noundef ptr @_ZN15ClassLoaderData26the_null_class_loader_dataEv() #1 comdat align 2 {
  %1 = load ptr, ptr @_ZN15ClassLoaderData27_the_null_class_loader_dataE, align 8
  ret ptr %1
}

; Function Attrs: mustprogress nounwind uwtable
define hidden void @_ZN16ModuleEntryTable17finalize_javabaseE6HandleP6SymbolS2_(ptr %0, ptr noundef %1, ptr noundef %2) #1 align 2 {
  %4 = alloca %class.Handle, align 8
  %5 = alloca ptr, align 8
  %6 = alloca ptr, align 8
  %7 = alloca ptr, align 8
  %8 = alloca ptr, align 8
  %9 = alloca ptr, align 8
  %10 = alloca %class.OopHandle, align 8
  %11 = alloca %class.Handle, align 8
  %12 = getelementptr inbounds %class.Handle, ptr %4, i32 0, i32 0
  store ptr %0, ptr %12, align 8
  store ptr %1, ptr %5, align 8
  store ptr %2, ptr %6, align 8
  %13 = call noundef ptr @_ZN15ClassLoaderData26the_null_class_loader_dataEv()
  store ptr %13, ptr %7, align 8
  %14 = load ptr, ptr %7, align 8
  %15 = call noundef ptr @_ZN15ClassLoaderData7modulesEv(ptr noundef nonnull align 8 dereferenceable(160) %14)
  store ptr %15, ptr %8, align 8
  %16 = call noundef zeroext i1 @_ZNK6Handle7is_nullEv(ptr noundef nonnull align 8 dereferenceable(8) %4)
  br i1 %16, label %17, label %21

17:                                               ; preds = %3
  br label %18

18:                                               ; preds = %17
  %19 = load ptr, ptr @g_assert_poison, align 8
  store i8 88, ptr %19, align 1
  call void (i32, ptr, i32, ptr, ...) @_Z12report_fatal11VMErrorTypePKciS1_z(i32 noundef -536870912, ptr noundef @.str.9, i32 noundef 653, ptr noundef @.str.14) #13
  unreachable

20:                                               ; No predecessors!
  br label %21

21:                                               ; preds = %20, %3
  %22 = call noundef ptr @_ZN16ModuleEntryTable20javabase_moduleEntryEv()
  store ptr %22, ptr %9, align 8
  %23 = load ptr, ptr %9, align 8
  %24 = load ptr, ptr %5, align 8
  call void @_ZN11ModuleEntry11set_versionEP6Symbol(ptr noundef nonnull align 8 dereferenceable(80) %23, ptr noundef %24)
  %25 = load ptr, ptr %9, align 8
  %26 = load ptr, ptr %6, align 8
  call void @_ZN11ModuleEntry12set_locationEP6Symbol(ptr noundef nonnull align 8 dereferenceable(80) %25, ptr noundef %26)
  %27 = load ptr, ptr %9, align 8
  %28 = load ptr, ptr %7, align 8
  call void @llvm.memcpy.p0.p0.i64(ptr align 8 %11, ptr align 8 %4, i64 8, i1 false)
  %29 = getelementptr inbounds %class.Handle, ptr %11, i32 0, i32 0
  %30 = load ptr, ptr %29, align 8
  call void @_ZN15ClassLoaderData10add_handleE6Handle(ptr dead_on_unwind writable sret(%class.OopHandle) align 8 %10, ptr noundef nonnull align 8 dereferenceable(160) %28, ptr %30)
  call void @_ZN11ModuleEntry10set_moduleE9OopHandle(ptr noundef nonnull align 8 dereferenceable(80) %27, ptr noundef %10)
  %31 = call noundef ptr @_ZNK6HandleclEv(ptr noundef nonnull align 8 dereferenceable(8) %4)
  %32 = load ptr, ptr %9, align 8
  call void @_ZN16java_lang_Module16set_module_entryEP7oopDescP11ModuleEntry(ptr noundef %31, ptr noundef %32)
  ret void
}