; Function Attrs: mustprogress nounwind uwtable
define hidden void @_ZN16ModuleEntryTable17finalize_javabaseE6HandleP6SymbolS2_(ptr %0, ptr noundef %1, ptr noundef %2) local_unnamed_addr #0 align 2 {
  %4 = alloca %class.OopHandle, align 8
  %5 = load ptr, ptr @_ZN15ClassLoaderData27_the_null_class_loader_dataE, align 8
  %6 = tail call noundef ptr @_ZN15ClassLoaderData7modulesEv(ptr noundef nonnull align 8 dereferenceable(160) %5) #16
  %7 = icmp eq ptr %0, null
  br i1 %7, label %8, label %10

8:                                                ; preds = %3
  %9 = load ptr, ptr @g_assert_poison, align 8
  store i8 88, ptr %9, align 1
  tail call void (i32, ptr, i32, ptr, ...) @_Z12report_fatal11VMErrorTypePKciS1_z(i32 noundef -536870912, ptr noundef nonnull @.str.9, i32 noundef 653, ptr noundef nonnull @.str.14) #18
  unreachable

10:                                               ; preds = %3
  %11 = load ptr, ptr @_ZN16ModuleEntryTable16_javabase_moduleE, align 8
  %12 = getelementptr inbounds i8, ptr %11, i64 40
  %13 = load ptr, ptr %12, align 8
  %.not.i.i = icmp eq ptr %13, null
  br i1 %.not.i.i, label %_ZN6Symbol24maybe_decrement_refcountEPS_.exit.i, label %14

14:                                               ; preds = %10
  tail call void @_ZN6Symbol18decrement_refcountEv(ptr noundef nonnull align 4 dereferenceable(8) %13) #16
  br label %_ZN6Symbol24maybe_decrement_refcountEPS_.exit.i

_ZN6Symbol24maybe_decrement_refcountEPS_.exit.i:  ; preds = %14, %10
  store ptr %1, ptr %12, align 8
  %.not.i3.i = icmp eq ptr %1, null
  br i1 %.not.i3.i, label %_ZN11ModuleEntry11set_versionEP6Symbol.exit, label %15

15:                                               ; preds = %_ZN6Symbol24maybe_decrement_refcountEPS_.exit.i
  tail call void @_ZN6Symbol18increment_refcountEv(ptr noundef nonnull align 4 dereferenceable(8) %1) #16
  br label %_ZN11ModuleEntry11set_versionEP6Symbol.exit

_ZN11ModuleEntry11set_versionEP6Symbol.exit:      ; preds = %_ZN6Symbol24maybe_decrement_refcountEPS_.exit.i, %15
  %16 = getelementptr inbounds i8, ptr %11, i64 48
  %17 = load ptr, ptr %16, align 8
  %.not.i.i8 = icmp eq ptr %17, null
  br i1 %.not.i.i8, label %_ZN6Symbol24maybe_decrement_refcountEPS_.exit.i9, label %18

18:                                               ; preds = %_ZN11ModuleEntry11set_versionEP6Symbol.exit
  tail call void @_ZN6Symbol18decrement_refcountEv(ptr noundef nonnull align 4 dereferenceable(8) %17) #16
  br label %_ZN6Symbol24maybe_decrement_refcountEPS_.exit.i9

_ZN6Symbol24maybe_decrement_refcountEPS_.exit.i9: ; preds = %18, %_ZN11ModuleEntry11set_versionEP6Symbol.exit
  store ptr %2, ptr %16, align 8
  %.not.i = icmp eq ptr %2, null
  br i1 %.not.i, label %_ZNK6HandleclEv.exit, label %19

19:                                               ; preds = %_ZN6Symbol24maybe_decrement_refcountEPS_.exit.i9
  tail call void @_ZN6Symbol18increment_refcountEv(ptr noundef nonnull align 4 dereferenceable(8) %2) #16
  %20 = tail call noundef zeroext i1 @_ZN9CDSConfig16is_using_archiveEv() #16
  br i1 %20, label %21, label %_ZNK6HandleclEv.exit

21:                                               ; preds = %19
  %22 = tail call noundef i32 @_ZN11FileMapInfo28get_module_shared_path_indexEP6Symbol(ptr noundef nonnull %2) #16
  %23 = getelementptr inbounds i8, ptr %11, i64 56
  store i32 %22, ptr %23, align 8
  br label %_ZNK6HandleclEv.exit

_ZNK6HandleclEv.exit:                             ; preds = %_ZN6Symbol24maybe_decrement_refcountEPS_.exit.i9, %19, %21
  call void @_ZN15ClassLoaderData10add_handleE6Handle(ptr dead_on_unwind nonnull writable sret(%class.OopHandle) align 8 %4, ptr noundef nonnull align 8 dereferenceable(160) %5, ptr nonnull %0) #16
  %24 = load ptr, ptr %4, align 8
  store ptr %24, ptr %11, align 8
  %25 = load ptr, ptr %0, align 8
  call void @_ZN16java_lang_Module16set_module_entryEP7oopDescP11ModuleEntry(ptr noundef %25, ptr noundef nonnull %11) #16
  ret void
}